; Function Attrs: nounwind uwtable
define void @lv_draw_triangle(ptr noundef %0, ptr noundef %1) local_unnamed_addr #0 {
  %3 = alloca %struct.lv_area_t, align 4
  %4 = getelementptr inbounds nuw i8, ptr %1, i64 48
  %5 = load i8, ptr %4, align 8, !tbaa !15
  %6 = icmp ult i8 %5, 3
  br i1 %6, label %44, label %7

7:                                                ; preds = %2
  call void @llvm.lifetime.start.p0(i64 16, ptr nonnull %3) #4
  %8 = getelementptr inbounds nuw i8, ptr %1, i64 64
  %9 = load float, ptr %8, align 8, !tbaa !21
  %10 = getelementptr inbounds i8, ptr %1, i64 72
  %11 = load float, ptr %10, align 8, !tbaa !21
  %12 = fcmp olt float %9, %11
  %. = select i1 %12, float %9, float %11
  %13 = getelementptr inbounds i8, ptr %1, i64 80
  %14 = load float, ptr %13, align 8, !tbaa !21
  %15 = fcmp olt float %., %14
  %16 = select i1 %15, float %., float %14
  %17 = fptosi float %16 to i32
  store i32 %17, ptr %3, align 4, !tbaa !24
  %18 = getelementptr inbounds nuw i8, ptr %1, i64 68
  %19 = load float, ptr %18, align 4, !tbaa !25
  %20 = getelementptr inbounds i8, ptr %1, i64 76
  %21 = load float, ptr %20, align 4, !tbaa !25
  %22 = fcmp olt float %19, %21
  %.68 = select i1 %22, float %19, float %21
  %23 = getelementptr inbounds i8, ptr %1, i64 84
  %24 = load float, ptr %23, align 4, !tbaa !25
  %25 = fcmp olt float %.68, %24
  %26 = select i1 %25, float %.68, float %24
  %27 = fptosi float %26 to i32
  %28 = getelementptr inbounds nuw i8, ptr %3, i64 4
  store i32 %27, ptr %28, align 4, !tbaa !26
  %29 = fcmp ogt float %9, %11
  %.70 = select i1 %29, float %9, float %11
  %30 = fcmp ogt float %.70, %14
  %31 = select i1 %30, float %.70, float %14
  %32 = fptosi float %31 to i32
  %33 = getelementptr inbounds nuw i8, ptr %3, i64 8
  store i32 %32, ptr %33, align 4, !tbaa !27
  %34 = fcmp ogt float %19, %21
  %.72 = select i1 %34, float %19, float %21
  %35 = fcmp ogt float %.72, %24
  %36 = select i1 %35, float %.72, float %24
  %37 = fptosi float %36 to i32
  %38 = getelementptr inbounds nuw i8, ptr %3, i64 12
  store i32 %37, ptr %38, align 4, !tbaa !28
  %39 = call ptr @lv_draw_add_task(ptr noundef %0, ptr noundef nonnull %3) #4
  %40 = call ptr @lv_malloc(i64 noundef 88) #4
  %41 = getelementptr inbounds nuw i8, ptr %39, i64 80
  store ptr %40, ptr %41, align 8, !tbaa !20
  %42 = call ptr @lv_memcpy(ptr noundef %40, ptr noundef nonnull %1, i64 noundef 88) #4
  %43 = getelementptr inbounds nuw i8, ptr %39, i64 8
  store i32 9, ptr %43, align 8, !tbaa !17
  call void @lv_draw_finalize_task_creation(ptr noundef %0, ptr noundef %39) #4
  call void @llvm.lifetime.end.p0(i64 16, ptr nonnull %3) #4
  br label %44

44:                                               ; preds = %2, %7
  ret void
}